target datalayout = "e-m:e-p270:32:32-p271:32:32-p272:64:64-i64:64-i128:128-f80:128-n8:16:32:64-S128"
target triple = "x86_64-pc-linux-gnu"

%struct.SlruCtlData = type { ptr, i16, i8, i32, ptr, [64 x i8] }
%struct.CommitTimestampShared = type { i32, %struct.CommitTimestampEntry, i8 }
%struct.CommitTimestampEntry = type { i64, i16 }
%union.LWLockPadded = type { %struct.LWLock, [112 x i8] }
%struct.LWLock = type { i16, %struct.pg_atomic_uint32, %struct.proclist_head }
%struct.pg_atomic_uint32 = type { i32 }
%struct.proclist_head = type { i32, i32 }
%struct.TransamVariablesData = type { i32, i32, %struct.FullTransactionId, i32, i32, i32, i32, i32, i32, i32, i32, %struct.FullTransactionId, i64, i32 }
%struct.FullTransactionId = type { i64 }
%struct.SlruSharedData = type { i32, ptr, ptr, ptr, ptr, ptr, ptr, ptr, ptr, ptr, i32, %struct.pg_atomic_uint64, i32 }
%struct.pg_atomic_uint64 = type { i64 }

@commitTsShared = internal global ptr null, align 8
@MainLWLockArray = external global ptr, align 8
@TransamVariables = external global ptr, align 8
@.str = private unnamed_addr constant [52 x i8] c"cannot retrieve commit timestamp for transaction %u\00", align 1
@.str.1 = private unnamed_addr constant [12 x i8] c"commit_ts.c\00", align 1
@__func__.TransactionIdGetCommitTsData = private unnamed_addr constant [29 x i8] c"TransactionIdGetCommitTsData\00", align 1
@CommitTsCtlData = internal global %struct.SlruCtlData zeroinitializer, align 8

; Function Attrs: inlinehint nounwind uwtable
define internal ptr @SimpleLruGetBankLock(ptr noundef %0, i64 noundef %1) #2 {
  %3 = alloca ptr, align 8
  %4 = alloca i64, align 8
  %5 = alloca i32, align 4
  store ptr %0, ptr %3, align 8
  store i64 %1, ptr %4, align 8
  call void @llvm.lifetime.start.p0(i64 4, ptr %5) #7
  %6 = load i64, ptr %4, align 8
  %7 = load ptr, ptr %3, align 8
  %8 = getelementptr inbounds nuw %struct.SlruCtlData, ptr %7, i32 0, i32 1
  %9 = load i16, ptr %8, align 8
  %10 = zext i16 %9 to i64
  %11 = srem i64 %6, %10
  %12 = trunc i64 %11 to i32
  store i32 %12, ptr %5, align 4
  %13 = load ptr, ptr %3, align 8
  %14 = getelementptr inbounds nuw %struct.SlruCtlData, ptr %13, i32 0, i32 0
  %15 = load ptr, ptr %14, align 8
  %16 = getelementptr inbounds nuw %struct.SlruSharedData, ptr %15, i32 0, i32 7
  %17 = load ptr, ptr %16, align 8
  %18 = load i32, ptr %5, align 4
  %19 = sext i32 %18 to i64
  %20 = getelementptr inbounds %union.LWLockPadded, ptr %17, i64 %19
  call void @llvm.lifetime.end.p0(i64 4, ptr %5) #7
  ret ptr %20
}

; Function Attrs: inlinehint nounwind uwtable
define internal i64 @TransactionIdToCTsPage(i32 noundef %0) #2 {
  %2 = alloca i32, align 4
  store i32 %0, ptr %2, align 4
  %3 = load i32, ptr %2, align 4
  %4 = zext i32 %3 to i64
  %5 = sdiv i64 %4, 819
  ret i64 %5
}

; Function Attrs: nounwind uwtable
define dso_local zeroext i1 @TransactionIdGetCommitTsData(i32 noundef %0, ptr noundef %1, ptr noundef %2) #0 {
  %4 = alloca i1, align 1
  %5 = alloca i32, align 4
  %6 = alloca ptr, align 8
  %7 = alloca ptr, align 8
  %8 = alloca i64, align 8
  %9 = alloca i32, align 4
  %10 = alloca i32, align 4
  %11 = alloca %struct.CommitTimestampEntry, align 8
  %12 = alloca i32, align 4
  %13 = alloca i32, align 4
  %14 = alloca i32, align 4
  store i32 %0, ptr %5, align 4
  store ptr %1, ptr %6, align 8
  store ptr %2, ptr %7, align 8
  call void @llvm.lifetime.start.p0(i64 8, ptr %8) #7
  %15 = load i32, ptr %5, align 4
  %16 = call i64 @TransactionIdToCTsPage(i32 noundef %15)
  store i64 %16, ptr %8, align 8
  call void @llvm.lifetime.start.p0(i64 4, ptr %9) #7
  %17 = load i32, ptr %5, align 4
  %18 = urem i32 %17, 819
  store i32 %18, ptr %9, align 4
  call void @llvm.lifetime.start.p0(i64 4, ptr %10) #7
  call void @llvm.lifetime.start.p0(i64 16, ptr %11) #7
  call void @llvm.lifetime.start.p0(i64 4, ptr %12) #7
  call void @llvm.lifetime.start.p0(i64 4, ptr %13) #7
  %19 = load i32, ptr %5, align 4
  %20 = icmp ne i32 %19, 0
  br i1 %20, label %34, label %21

21:                                               ; preds = %3
  br label %22

22:                                               ; preds = %21
  br i1 true, label %23, label %25

23:                                               ; preds = %22
  %24 = call zeroext i1 @errstart_cold(i32 noundef 21, ptr noundef null) #8
  br i1 %24, label %27, label %31

25:                                               ; preds = %22
  %26 = call zeroext i1 @errstart(i32 noundef 21, ptr noundef null)
  br i1 %26, label %27, label %31

27:                                               ; preds = %25, %23
  %28 = call i32 @errcode(i32 noundef 50856066)
  %29 = load i32, ptr %5, align 4
  %30 = call i32 (ptr, ...) @errmsg(ptr noundef @.str, i32 noundef %29)
  call void @errfinish(ptr noundef @.str.1, i32 noundef 287, ptr noundef @__func__.TransactionIdGetCommitTsData)
  br label %31

31:                                               ; preds = %27, %25, %23
  unreachable

32:                                               ; No predecessors!
  br label %33

33:                                               ; preds = %32
  br label %45

34:                                               ; preds = %3
  %35 = load i32, ptr %5, align 4
  %36 = icmp uge i32 %35, 3
  br i1 %36, label %44, label %37

37:                                               ; preds = %34
  %38 = load ptr, ptr %6, align 8
  store i64 0, ptr %38, align 8
  %39 = load ptr, ptr %7, align 8
  %40 = icmp ne ptr %39, null
  br i1 %40, label %41, label %43

41:                                               ; preds = %37
  %42 = load ptr, ptr %7, align 8
  store i16 0, ptr %42, align 2
  br label %43

43:                                               ; preds = %41, %37
  store i1 false, ptr %4, align 1
  store i32 1, ptr %14, align 4
  br label %136

44:                                               ; preds = %34
  br label %45

45:                                               ; preds = %44, %33
  %46 = load ptr, ptr @MainLWLockArray, align 8
  %47 = getelementptr inbounds %union.LWLockPadded, ptr %46, i64 39
  %48 = call zeroext i1 @LWLockAcquire(ptr noundef %47, i32 noundef 1)
  %49 = load ptr, ptr @commitTsShared, align 8
  %50 = getelementptr inbounds nuw %struct.CommitTimestampShared, ptr %49, i32 0, i32 2
  %51 = load i8, ptr %50, align 8, !range !4, !noundef !5
  %52 = trunc i8 %51 to i1
  br i1 %52, label %54, label %53

53:                                               ; preds = %45
  call void @error_commit_ts_disabled()
  br label %54

54:                                               ; preds = %53, %45
  %55 = load ptr, ptr @commitTsShared, align 8
  %56 = getelementptr inbounds nuw %struct.CommitTimestampShared, ptr %55, i32 0, i32 0
  %57 = load i32, ptr %56, align 8
  %58 = load i32, ptr %5, align 4
  %59 = icmp eq i32 %57, %58
  br i1 %59, label %60, label %80

60:                                               ; preds = %54
  %61 = load ptr, ptr @commitTsShared, align 8
  %62 = getelementptr inbounds nuw %struct.CommitTimestampShared, ptr %61, i32 0, i32 1
  %63 = getelementptr inbounds nuw %struct.CommitTimestampEntry, ptr %62, i32 0, i32 0
  %64 = load i64, ptr %63, align 8
  %65 = load ptr, ptr %6, align 8
  store i64 %64, ptr %65, align 8
  %66 = load ptr, ptr %7, align 8
  %67 = icmp ne ptr %66, null
  br i1 %67, label %68, label %74

68:                                               ; preds = %60
  %69 = load ptr, ptr @commitTsShared, align 8
  %70 = getelementptr inbounds nuw %struct.CommitTimestampShared, ptr %69, i32 0, i32 1
  %71 = getelementptr inbounds nuw %struct.CommitTimestampEntry, ptr %70, i32 0, i32 1
  %72 = load i16, ptr %71, align 8
  %73 = load ptr, ptr %7, align 8
  store i16 %72, ptr %73, align 2
  br label %74

74:                                               ; preds = %68, %60
  %75 = load ptr, ptr @MainLWLockArray, align 8
  %76 = getelementptr inbounds %union.LWLockPadded, ptr %75, i64 39
  call void @LWLockRelease(ptr noundef %76)
  %77 = load ptr, ptr %6, align 8
  %78 = load i64, ptr %77, align 8
  %79 = icmp ne i64 %78, 0
  store i1 %79, ptr %4, align 1
  store i32 1, ptr %14, align 4
  br label %136

80:                                               ; preds = %54
  %81 = load ptr, ptr @TransamVariables, align 8
  %82 = getelementptr inbounds nuw %struct.TransamVariablesData, ptr %81, i32 0, i32 9
  %83 = load i32, ptr %82, align 8
  store i32 %83, ptr %12, align 4
  %84 = load ptr, ptr @TransamVariables, align 8
  %85 = getelementptr inbounds nuw %struct.TransamVariablesData, ptr %84, i32 0, i32 10
  %86 = load i32, ptr %85, align 4
  store i32 %86, ptr %13, align 4
  %87 = load ptr, ptr @MainLWLockArray, align 8
  %88 = getelementptr inbounds %union.LWLockPadded, ptr %87, i64 39
  call void @LWLockRelease(ptr noundef %88)
  %89 = load i32, ptr %12, align 4
  %90 = icmp ne i32 %89, 0
  br i1 %90, label %91, label %99

91:                                               ; preds = %80
  %92 = load i32, ptr %5, align 4
  %93 = load i32, ptr %12, align 4
  %94 = call zeroext i1 @TransactionIdPrecedes(i32 noundef %92, i32 noundef %93)
  br i1 %94, label %99, label %95

95:                                               ; preds = %91
  %96 = load i32, ptr %13, align 4
  %97 = load i32, ptr %5, align 4
  %98 = call zeroext i1 @TransactionIdPrecedes(i32 noundef %96, i32 noundef %97)
  br i1 %98, label %99, label %106

99:                                               ; preds = %95, %91, %80
  %100 = load ptr, ptr %6, align 8
  store i64 0, ptr %100, align 8
  %101 = load ptr, ptr %7, align 8
  %102 = icmp ne ptr %101, null
  br i1 %102, label %103, label %105

103:                                              ; preds = %99
  %104 = load ptr, ptr %7, align 8
  store i16 0, ptr %104, align 2
  br label %105

105:                                              ; preds = %103, %99
  store i1 false, ptr %4, align 1
  store i32 1, ptr %14, align 4
  br label %136

106:                                              ; preds = %95
  %107 = load i64, ptr %8, align 8
  %108 = load i32, ptr %5, align 4
  %109 = call i32 @SimpleLruReadPage_ReadOnly(ptr noundef @CommitTsCtlData, i64 noundef %107, i32 noundef %108)
  store i32 %109, ptr %10, align 4
  %110 = load ptr, ptr @CommitTsCtlData, align 8
  %111 = getelementptr inbounds nuw %struct.SlruSharedData, ptr %110, i32 0, i32 1
  %112 = load ptr, ptr %111, align 8
  %113 = load i32, ptr %10, align 4
  %114 = sext i32 %113 to i64
  %115 = getelementptr inbounds ptr, ptr %112, i64 %114
  %116 = load ptr, ptr %115, align 8
  %117 = load i32, ptr %9, align 4
  %118 = sext i32 %117 to i64
  %119 = mul i64 10, %118
  %120 = getelementptr inbounds nuw i8, ptr %116, i64 %119
  call void @llvm.memcpy.p0.p0.i64(ptr align 8 %11, ptr align 1 %120, i64 10, i1 false)
  %121 = getelementptr inbounds nuw %struct.CommitTimestampEntry, ptr %11, i32 0, i32 0
  %122 = load i64, ptr %121, align 8
  %123 = load ptr, ptr %6, align 8
  store i64 %122, ptr %123, align 8
  %124 = load ptr, ptr %7, align 8
  %125 = icmp ne ptr %124, null
  br i1 %125, label %126, label %130

126:                                              ; preds = %106
  %127 = getelementptr inbounds nuw %struct.CommitTimestampEntry, ptr %11, i32 0, i32 1
  %128 = load i16, ptr %127, align 8
  %129 = load ptr, ptr %7, align 8
  store i16 %128, ptr %129, align 2
  br label %130

130:                                              ; preds = %126, %106
  %131 = load i64, ptr %8, align 8
  %132 = call ptr @SimpleLruGetBankLock(ptr noundef @CommitTsCtlData, i64 noundef %131)
  call void @LWLockRelease(ptr noundef %132)
  %133 = load ptr, ptr %6, align 8
  %134 = load i64, ptr %133, align 8
  %135 = icmp ne i64 %134, 0
  store i1 %135, ptr %4, align 1
  store i32 1, ptr %14, align 4
  br label %136

136:                                              ; preds = %130, %105, %74, %43
  call void @llvm.lifetime.end.p0(i64 4, ptr %13) #7
  call void @llvm.lifetime.end.p0(i64 4, ptr %12) #7
  call void @llvm.lifetime.end.p0(i64 16, ptr %11) #7
  call void @llvm.lifetime.end.p0(i64 4, ptr %10) #7
  call void @llvm.lifetime.end.p0(i64 4, ptr %9) #7
  call void @llvm.lifetime.end.p0(i64 8, ptr %8) #7
  %137 = load i1, ptr %4, align 1
  ret i1 %137
}