; Function Attrs: nounwind uwtable
define dso_local zeroext i1 @TransactionIdGetCommitTsData(i32 noundef %0, ptr noundef captures(none) %1, ptr noundef writeonly captures(address_is_null) %2) local_unnamed_addr #0 {
  %4 = udiv i32 %0, 819
  %5 = zext nneg i32 %4 to i64
  %6 = urem i32 %0, 819
  %.not = icmp eq i32 %0, 0
  br i1 %.not, label %7, label %11

7:                                                ; preds = %3
  %8 = tail call zeroext i1 @errstart_cold(i32 noundef 21, ptr noundef null) #10
  tail call void @llvm.assume(i1 %8)
  %9 = tail call i32 @errcode(i32 noundef 50856066) #9
  %10 = tail call i32 (ptr, ...) @errmsg(ptr noundef nonnull @.str, i32 noundef 0) #9
  tail call void @errfinish(ptr noundef nonnull @.str.1, i32 noundef 287, ptr noundef nonnull @__func__.TransactionIdGetCommitTsData) #9
  unreachable

11:                                               ; preds = %3
  %12 = icmp ugt i32 %0, 2
  br i1 %12, label %15, label %13

13:                                               ; preds = %11
  store i64 0, ptr %1, align 8
  %.not34 = icmp eq ptr %2, null
  br i1 %.not34, label %74, label %14

14:                                               ; preds = %13
  store i16 0, ptr %2, align 2
  br label %74

15:                                               ; preds = %11
  %16 = load ptr, ptr @MainLWLockArray, align 8
  %17 = getelementptr inbounds nuw i8, ptr %16, i64 4992
  %18 = tail call zeroext i1 @LWLockAcquire(ptr noundef nonnull %17, i32 noundef 1) #9
  %19 = load ptr, ptr @commitTsShared, align 8
  %20 = getelementptr inbounds nuw i8, ptr %19, i64 24
  %21 = load i8, ptr %20, align 8, !range !4, !noundef !5
  %22 = trunc nuw i8 %21 to i1
  br i1 %22, label %24, label %23

23:                                               ; preds = %15
  tail call fastcc void @error_commit_ts_disabled()
  unreachable

24:                                               ; preds = %15
  %25 = load i32, ptr %19, align 8
  %26 = icmp eq i32 %25, %0
  br i1 %26, label %27, label %38

27:                                               ; preds = %24
  %28 = getelementptr inbounds nuw i8, ptr %19, i64 8
  %29 = load i64, ptr %28, align 8
  store i64 %29, ptr %1, align 8
  %.not38 = icmp eq ptr %2, null
  br i1 %.not38, label %33, label %30

30:                                               ; preds = %27
  %31 = getelementptr inbounds nuw i8, ptr %19, i64 16
  %32 = load i16, ptr %31, align 8
  store i16 %32, ptr %2, align 2
  br label %33

33:                                               ; preds = %30, %27
  %34 = load ptr, ptr @MainLWLockArray, align 8
  %35 = getelementptr inbounds nuw i8, ptr %34, i64 4992
  tail call void @LWLockRelease(ptr noundef nonnull %35) #9
  %36 = load i64, ptr %1, align 8
  %37 = icmp ne i64 %36, 0
  br label %74

38:                                               ; preds = %24
  %39 = load ptr, ptr @TransamVariables, align 8
  %40 = getelementptr inbounds nuw i8, ptr %39, i64 40
  %41 = load i32, ptr %40, align 8
  %42 = getelementptr inbounds nuw i8, ptr %39, i64 44
  %43 = load i32, ptr %42, align 4
  %44 = load ptr, ptr @MainLWLockArray, align 8
  %45 = getelementptr inbounds nuw i8, ptr %44, i64 4992
  tail call void @LWLockRelease(ptr noundef nonnull %45) #9
  %.not35 = icmp eq i32 %41, 0
  br i1 %.not35, label %50, label %46

46:                                               ; preds = %38
  %47 = tail call zeroext i1 @TransactionIdPrecedes(i32 noundef %0, i32 noundef %41) #9
  br i1 %47, label %50, label %48

48:                                               ; preds = %46
  %49 = tail call zeroext i1 @TransactionIdPrecedes(i32 noundef %43, i32 noundef %0) #9
  br i1 %49, label %50, label %52

50:                                               ; preds = %48, %46, %38
  store i64 0, ptr %1, align 8
  %.not37 = icmp eq ptr %2, null
  br i1 %.not37, label %74, label %51

51:                                               ; preds = %50
  store i16 0, ptr %2, align 2
  br label %74

52:                                               ; preds = %48
  %53 = tail call i32 @SimpleLruReadPage_ReadOnly(ptr noundef nonnull @CommitTsCtlData, i64 noundef %5, i32 noundef %0) #9
  %54 = load ptr, ptr @CommitTsCtlData, align 8
  %55 = getelementptr inbounds nuw i8, ptr %54, i64 8
  %56 = load ptr, ptr %55, align 8
  %57 = sext i32 %53 to i64
  %58 = getelementptr inbounds ptr, ptr %56, i64 %57
  %59 = load ptr, ptr %58, align 8
  %narrow = mul nuw nsw i32 %6, 10
  %60 = zext nneg i32 %narrow to i64
  %61 = getelementptr inbounds nuw i8, ptr %59, i64 %60
  %.sroa.0.0.copyload = load i64, ptr %61, align 1
  %.sroa.4.0..sroa_idx = getelementptr inbounds nuw i8, ptr %61, i64 8
  %.sroa.4.0.copyload = load i16, ptr %.sroa.4.0..sroa_idx, align 1
  store i64 %.sroa.0.0.copyload, ptr %1, align 8
  %.not36 = icmp eq ptr %2, null
  br i1 %.not36, label %63, label %62

62:                                               ; preds = %52
  store i16 %.sroa.4.0.copyload, ptr %2, align 2
  br label %63

63:                                               ; preds = %62, %52
  %64 = load i16, ptr getelementptr inbounds nuw (i8, ptr @CommitTsCtlData, i64 8), align 8
  %.rhs.trunc = zext i16 %64 to i32
  %65 = urem i32 %4, %.rhs.trunc
  %66 = load ptr, ptr @CommitTsCtlData, align 8
  %67 = getelementptr inbounds nuw i8, ptr %66, i64 56
  %68 = load ptr, ptr %67, align 8
  %69 = shl nuw nsw i32 %65, 7
  %70 = zext nneg i32 %69 to i64
  %71 = getelementptr inbounds nuw i8, ptr %68, i64 %70
  tail call void @LWLockRelease(ptr noundef %71) #9
  %72 = load i64, ptr %1, align 8
  %73 = icmp ne i64 %72, 0
  br label %74

74:                                               ; preds = %50, %51, %13, %14, %63, %33
  %.0 = phi i1 [ %37, %33 ], [ %73, %63 ], [ false, %14 ], [ false, %13 ], [ false, %51 ], [ false, %50 ]
  ret i1 %.0
}